target datalayout = "e-m:e-p270:32:32-p271:32:32-p272:64:64-i64:64-i128:128-f80:128-n8:16:32:64-S128"
target triple = "x86_64-unknown-linux-gnu"

%"class.cvc5::internal::theory::QuantifiersEngine" = type <{ %"class.cvc5::internal::EnvObj", ptr, ptr, ptr, ptr, %"class.std::vector", %"class.std::vector.0", ptr, ptr, %"class.std::unique_ptr", ptr, %"class.std::unique_ptr.7", %"class.std::map", %"class.cvc5::context::CDHashSet", %"class.cvc5::context::CDHashMap", i32, [4 x i8] }>
%"class.cvc5::internal::EnvObj" = type { ptr, ptr }
%"class.std::vector" = type { %"struct.std::_Vector_base" }
%"struct.std::_Vector_base" = type { %"struct.std::_Vector_base<cvc5::internal::theory::QuantifiersUtil *, std::allocator<cvc5::internal::theory::QuantifiersUtil *>>::_Vector_impl" }
%"struct.std::_Vector_base<cvc5::internal::theory::QuantifiersUtil *, std::allocator<cvc5::internal::theory::QuantifiersUtil *>>::_Vector_impl" = type { %"struct.std::_Vector_base<cvc5::internal::theory::QuantifiersUtil *, std::allocator<cvc5::internal::theory::QuantifiersUtil *>>::_Vector_impl_data" }
%"struct.std::_Vector_base<cvc5::internal::theory::QuantifiersUtil *, std::allocator<cvc5::internal::theory::QuantifiersUtil *>>::_Vector_impl_data" = type { ptr, ptr, ptr }
%"class.std::vector.0" = type { %"struct.std::_Vector_base.1" }
%"struct.std::_Vector_base.1" = type { %"struct.std::_Vector_base<cvc5::internal::theory::QuantifiersModule *, std::allocator<cvc5::internal::theory::QuantifiersModule *>>::_Vector_impl" }
%"struct.std::_Vector_base<cvc5::internal::theory::QuantifiersModule *, std::allocator<cvc5::internal::theory::QuantifiersModule *>>::_Vector_impl" = type { %"struct.std::_Vector_base<cvc5::internal::theory::QuantifiersModule *, std::allocator<cvc5::internal::theory::QuantifiersModule *>>::_Vector_impl_data" }
%"struct.std::_Vector_base<cvc5::internal::theory::QuantifiersModule *, std::allocator<cvc5::internal::theory::QuantifiersModule *>>::_Vector_impl_data" = type { ptr, ptr, ptr }
%"class.std::unique_ptr" = type { %"struct.std::__uniq_ptr_data" }
%"struct.std::__uniq_ptr_data" = type { %"class.std::__uniq_ptr_impl" }
%"class.std::__uniq_ptr_impl" = type { %"class.std::tuple" }
%"class.std::tuple" = type { %"struct.std::_Tuple_impl" }
%"struct.std::_Tuple_impl" = type { %"struct.std::_Head_base.6" }
%"struct.std::_Head_base.6" = type { ptr }
%"class.std::unique_ptr.7" = type { %"struct.std::__uniq_ptr_data.8" }
%"struct.std::__uniq_ptr_data.8" = type { %"class.std::__uniq_ptr_impl.9" }
%"class.std::__uniq_ptr_impl.9" = type { %"class.std::tuple.10" }
%"class.std::tuple.10" = type { %"struct.std::_Tuple_impl.11" }
%"struct.std::_Tuple_impl.11" = type { %"struct.std::_Head_base.14" }
%"struct.std::_Head_base.14" = type { ptr }
%"class.std::map" = type { %"class.std::_Rb_tree" }
%"class.std::_Rb_tree" = type { %"struct.std::_Rb_tree<cvc5::internal::NodeTemplate<true>, std::pair<const cvc5::internal::NodeTemplate<true>, bool>, std::_Select1st<std::pair<const cvc5::internal::NodeTemplate<true>, bool>>, std::less<cvc5::internal::NodeTemplate<true>>>::_Rb_tree_impl" }
%"struct.std::_Rb_tree<cvc5::internal::NodeTemplate<true>, std::pair<const cvc5::internal::NodeTemplate<true>, bool>, std::_Select1st<std::pair<const cvc5::internal::NodeTemplate<true>, bool>>, std::less<cvc5::internal::NodeTemplate<true>>>::_Rb_tree_impl" = type { %"struct.std::_Rb_tree_key_compare", %"struct.std::_Rb_tree_header" }
%"struct.std::_Rb_tree_key_compare" = type { %"struct.std::less" }
%"struct.std::less" = type { i8 }
%"struct.std::_Rb_tree_header" = type { %"struct.std::_Rb_tree_node_base", i64 }
%"struct.std::_Rb_tree_node_base" = type { i32, ptr, ptr, ptr }
%"class.cvc5::context::CDHashSet" = type { %"class.cvc5::context::CDInsertHashMap" }
%"class.cvc5::context::CDInsertHashMap" = type { %"class.cvc5::context::ContextObj", ptr, i64 }
%"class.cvc5::context::ContextObj" = type { ptr, ptr, ptr, ptr, ptr }
%"class.cvc5::context::CDHashMap" = type { %"class.cvc5::context::ContextObj", %"class.std::unordered_map", ptr, ptr }
%"class.std::unordered_map" = type { %"class.std::_Hashtable" }
%"class.std::_Hashtable" = type { ptr, i64, %"struct.std::__detail::_Hash_node_base", i64, %"struct.std::__detail::_Prime_rehash_policy", ptr }
%"struct.std::__detail::_Hash_node_base" = type { ptr }
%"struct.std::__detail::_Prime_rehash_policy" = type { float, i64 }
%"class.cvc5::internal::theory::quantifiers::QuantifiersModules" = type { %"class.std::unique_ptr.790", %"class.std::unique_ptr.798", %"class.std::unique_ptr.806", %"class.std::unique_ptr.814", %"class.std::unique_ptr.822", %"class.std::unique_ptr.830", %"class.std::unique_ptr.838", %"class.std::unique_ptr.846", %"class.std::unique_ptr.854", %"class.std::unique_ptr.862", %"class.std::unique_ptr.870", %"class.std::unique_ptr.878", %"class.std::unique_ptr.886", %"class.std::unique_ptr.894", %"class.std::unique_ptr.902" }
%"class.std::unique_ptr.790" = type { %"struct.std::__uniq_ptr_data.791" }
%"struct.std::__uniq_ptr_data.791" = type { %"class.std::__uniq_ptr_impl.792" }
%"class.std::__uniq_ptr_impl.792" = type { %"class.std::tuple.793" }
%"class.std::tuple.793" = type { %"struct.std::_Tuple_impl.794" }
%"struct.std::_Tuple_impl.794" = type { %"struct.std::_Head_base.797" }
%"struct.std::_Head_base.797" = type { ptr }
%"class.std::unique_ptr.798" = type { %"struct.std::__uniq_ptr_data.799" }
%"struct.std::__uniq_ptr_data.799" = type { %"class.std::__uniq_ptr_impl.800" }
%"class.std::__uniq_ptr_impl.800" = type { %"class.std::tuple.801" }
%"class.std::tuple.801" = type { %"struct.std::_Tuple_impl.802" }
%"struct.std::_Tuple_impl.802" = type { %"struct.std::_Head_base.805" }
%"struct.std::_Head_base.805" = type { ptr }
%"class.std::unique_ptr.806" = type { %"struct.std::__uniq_ptr_data.807" }
%"struct.std::__uniq_ptr_data.807" = type { %"class.std::__uniq_ptr_impl.808" }
%"class.std::__uniq_ptr_impl.808" = type { %"class.std::tuple.809" }
%"class.std::tuple.809" = type { %"struct.std::_Tuple_impl.810" }
%"struct.std::_Tuple_impl.810" = type { %"struct.std::_Head_base.813" }
%"struct.std::_Head_base.813" = type { ptr }
%"class.std::unique_ptr.814" = type { %"struct.std::__uniq_ptr_data.815" }
%"struct.std::__uniq_ptr_data.815" = type { %"class.std::__uniq_ptr_impl.816" }
%"class.std::__uniq_ptr_impl.816" = type { %"class.std::tuple.817" }
%"class.std::tuple.817" = type { %"struct.std::_Tuple_impl.818" }
%"struct.std::_Tuple_impl.818" = type { %"struct.std::_Head_base.821" }
%"struct.std::_Head_base.821" = type { ptr }
%"class.std::unique_ptr.822" = type { %"struct.std::__uniq_ptr_data.823" }
%"struct.std::__uniq_ptr_data.823" = type { %"class.std::__uniq_ptr_impl.824" }
%"class.std::__uniq_ptr_impl.824" = type { %"class.std::tuple.825" }
%"class.std::tuple.825" = type { %"struct.std::_Tuple_impl.826" }
%"struct.std::_Tuple_impl.826" = type { %"struct.std::_Head_base.829" }
%"struct.std::_Head_base.829" = type { ptr }
%"class.std::unique_ptr.830" = type { %"struct.std::__uniq_ptr_data.831" }
%"struct.std::__uniq_ptr_data.831" = type { %"class.std::__uniq_ptr_impl.832" }
%"class.std::__uniq_ptr_impl.832" = type { %"class.std::tuple.833" }
%"class.std::tuple.833" = type { %"struct.std::_Tuple_impl.834" }
%"struct.std::_Tuple_impl.834" = type { %"struct.std::_Head_base.837" }
%"struct.std::_Head_base.837" = type { ptr }
%"class.std::unique_ptr.838" = type { %"struct.std::__uniq_ptr_data.839" }
%"struct.std::__uniq_ptr_data.839" = type { %"class.std::__uniq_ptr_impl.840" }
%"class.std::__uniq_ptr_impl.840" = type { %"class.std::tuple.841" }
%"class.std::tuple.841" = type { %"struct.std::_Tuple_impl.842" }
%"struct.std::_Tuple_impl.842" = type { %"struct.std::_Head_base.845" }
%"struct.std::_Head_base.845" = type { ptr }
%"class.std::unique_ptr.846" = type { %"struct.std::__uniq_ptr_data.847" }
%"struct.std::__uniq_ptr_data.847" = type { %"class.std::__uniq_ptr_impl.848" }
%"class.std::__uniq_ptr_impl.848" = type { %"class.std::tuple.849" }
%"class.std::tuple.849" = type { %"struct.std::_Tuple_impl.850" }
%"struct.std::_Tuple_impl.850" = type { %"struct.std::_Head_base.853" }
%"struct.std::_Head_base.853" = type { ptr }
%"class.std::unique_ptr.854" = type { %"struct.std::__uniq_ptr_data.855" }
%"struct.std::__uniq_ptr_data.855" = type { %"class.std::__uniq_ptr_impl.856" }
%"class.std::__uniq_ptr_impl.856" = type { %"class.std::tuple.857" }
%"class.std::tuple.857" = type { %"struct.std::_Tuple_impl.858" }
%"struct.std::_Tuple_impl.858" = type { %"struct.std::_Head_base.861" }
%"struct.std::_Head_base.861" = type { ptr }
%"class.std::unique_ptr.862" = type { %"struct.std::__uniq_ptr_data.863" }
%"struct.std::__uniq_ptr_data.863" = type { %"class.std::__uniq_ptr_impl.864" }
%"class.std::__uniq_ptr_impl.864" = type { %"class.std::tuple.865" }
%"class.std::tuple.865" = type { %"struct.std::_Tuple_impl.866" }
%"struct.std::_Tuple_impl.866" = type { %"struct.std::_Head_base.869" }
%"struct.std::_Head_base.869" = type { ptr }
%"class.std::unique_ptr.870" = type { %"struct.std::__uniq_ptr_data.871" }
%"struct.std::__uniq_ptr_data.871" = type { %"class.std::__uniq_ptr_impl.872" }
%"class.std::__uniq_ptr_impl.872" = type { %"class.std::tuple.873" }
%"class.std::tuple.873" = type { %"struct.std::_Tuple_impl.874" }
%"struct.std::_Tuple_impl.874" = type { %"struct.std::_Head_base.877" }
%"struct.std::_Head_base.877" = type { ptr }
%"class.std::unique_ptr.878" = type { %"struct.std::__uniq_ptr_data.879" }
%"struct.std::__uniq_ptr_data.879" = type { %"class.std::__uniq_ptr_impl.880" }
%"class.std::__uniq_ptr_impl.880" = type { %"class.std::tuple.881" }
%"class.std::tuple.881" = type { %"struct.std::_Tuple_impl.882" }
%"struct.std::_Tuple_impl.882" = type { %"struct.std::_Head_base.885" }
%"struct.std::_Head_base.885" = type { ptr }
%"class.std::unique_ptr.886" = type { %"struct.std::__uniq_ptr_data.887" }
%"struct.std::__uniq_ptr_data.887" = type { %"class.std::__uniq_ptr_impl.888" }
%"class.std::__uniq_ptr_impl.888" = type { %"class.std::tuple.889" }
%"class.std::tuple.889" = type { %"struct.std::_Tuple_impl.890" }
%"struct.std::_Tuple_impl.890" = type { %"struct.std::_Head_base.893" }
%"struct.std::_Head_base.893" = type { ptr }
%"class.std::unique_ptr.894" = type { %"struct.std::__uniq_ptr_data.895" }
%"struct.std::__uniq_ptr_data.895" = type { %"class.std::__uniq_ptr_impl.896" }
%"class.std::__uniq_ptr_impl.896" = type { %"class.std::tuple.897" }
%"class.std::tuple.897" = type { %"struct.std::_Tuple_impl.898" }
%"struct.std::_Tuple_impl.898" = type { %"struct.std::_Head_base.901" }
%"struct.std::_Head_base.901" = type { ptr }
%"class.std::unique_ptr.902" = type { %"struct.std::__uniq_ptr_data.903" }
%"struct.std::__uniq_ptr_data.903" = type { %"class.std::__uniq_ptr_impl.904" }
%"class.std::__uniq_ptr_impl.904" = type { %"class.std::tuple.905" }
%"class.std::tuple.905" = type { %"struct.std::_Tuple_impl.906" }
%"struct.std::_Tuple_impl.906" = type { %"struct.std::_Head_base.909" }
%"struct.std::_Head_base.909" = type { ptr }

; Function Attrs: mustprogress nounwind uwtable
define linkonce_odr hidden noundef nonnull align 8 dereferenceable(8) ptr @_ZNSt10_Head_baseILm0EPN4cvc58internal6theory11quantifiers11SynthEngineELb0EE7_M_headERKS6_(ptr noundef nonnull align 8 dereferenceable(8) %__b) #4 comdat align 2 {
entry:
  %__b.addr = alloca ptr, align 8
  store ptr %__b, ptr %__b.addr, align 8
  %0 = load ptr, ptr %__b.addr, align 8
  %_M_head_impl = getelementptr inbounds %"struct.std::_Head_base.853", ptr %0, i32 0, i32 0
  ret ptr %_M_head_impl
}

; Function Attrs: mustprogress nounwind uwtable
define linkonce_odr hidden noundef nonnull align 8 dereferenceable(8) ptr @_ZNSt10_Head_baseILm0EPN4cvc58internal6theory11quantifiers18QuantifiersModulesELb0EE7_M_headERKS6_(ptr noundef nonnull align 8 dereferenceable(8) %__b) #4 comdat align 2 {
entry:
  %__b.addr = alloca ptr, align 8
  store ptr %__b, ptr %__b.addr, align 8
  %0 = load ptr, ptr %__b.addr, align 8
  %_M_head_impl = getelementptr inbounds %"struct.std::_Head_base.14", ptr %0, i32 0, i32 0
  ret ptr %_M_head_impl
}

; Function Attrs: mustprogress nounwind uwtable
define linkonce_odr hidden noundef nonnull align 8 dereferenceable(8) ptr @_ZNSt11_Tuple_implILm0EJPN4cvc58internal6theory11quantifiers11SynthEngineESt14default_deleteIS4_EEE7_M_headERKS8_(ptr noundef nonnull align 8 dereferenceable(8) %__t) #4 comdat align 2 {
entry:
  %__t.addr = alloca ptr, align 8
  store ptr %__t, ptr %__t.addr, align 8
  %0 = load ptr, ptr %__t.addr, align 8
  %call = call noundef nonnull align 8 dereferenceable(8) ptr @_ZNSt10_Head_baseILm0EPN4cvc58internal6theory11quantifiers11SynthEngineELb0EE7_M_headERKS6_(ptr noundef nonnull align 8 dereferenceable(8) %0) #3
  ret ptr %call
}

; Function Attrs: mustprogress nounwind uwtable
define linkonce_odr hidden noundef nonnull align 8 dereferenceable(8) ptr @_ZNSt11_Tuple_implILm0EJPN4cvc58internal6theory11quantifiers18QuantifiersModulesESt14default_deleteIS4_EEE7_M_headERKS8_(ptr noundef nonnull align 8 dereferenceable(8) %__t) #4 comdat align 2 {
entry:
  %__t.addr = alloca ptr, align 8
  store ptr %__t, ptr %__t.addr, align 8
  %0 = load ptr, ptr %__t.addr, align 8
  %call = call noundef nonnull align 8 dereferenceable(8) ptr @_ZNSt10_Head_baseILm0EPN4cvc58internal6theory11quantifiers18QuantifiersModulesELb0EE7_M_headERKS6_(ptr noundef nonnull align 8 dereferenceable(8) %0) #3
  ret ptr %call
}

; Function Attrs: mustprogress nounwind uwtable
define linkonce_odr hidden noundef nonnull align 8 dereferenceable(8) ptr @_ZSt12__get_helperILm0EPN4cvc58internal6theory11quantifiers11SynthEngineEJSt14default_deleteIS4_EEERKT0_RKSt11_Tuple_implIXT_EJS8_DpT1_EE(ptr noundef nonnull align 8 dereferenceable(8) %__t) #4 comdat {
entry:
  %__t.addr = alloca ptr, align 8
  store ptr %__t, ptr %__t.addr, align 8
  %0 = load ptr, ptr %__t.addr, align 8
  %call = call noundef nonnull align 8 dereferenceable(8) ptr @_ZNSt11_Tuple_implILm0EJPN4cvc58internal6theory11quantifiers11SynthEngineESt14default_deleteIS4_EEE7_M_headERKS8_(ptr noundef nonnull align 8 dereferenceable(8) %0) #3
  ret ptr %call
}

; Function Attrs: mustprogress nounwind uwtable
define linkonce_odr hidden noundef nonnull align 8 dereferenceable(8) ptr @_ZSt12__get_helperILm0EPN4cvc58internal6theory11quantifiers18QuantifiersModulesEJSt14default_deleteIS4_EEERKT0_RKSt11_Tuple_implIXT_EJS8_DpT1_EE(ptr noundef nonnull align 8 dereferenceable(8) %__t) #4 comdat {
entry:
  %__t.addr = alloca ptr, align 8
  store ptr %__t, ptr %__t.addr, align 8
  %0 = load ptr, ptr %__t.addr, align 8
  %call = call noundef nonnull align 8 dereferenceable(8) ptr @_ZNSt11_Tuple_implILm0EJPN4cvc58internal6theory11quantifiers18QuantifiersModulesESt14default_deleteIS4_EEE7_M_headERKS8_(ptr noundef nonnull align 8 dereferenceable(8) %0) #3
  ret ptr %call
}

; Function Attrs: mustprogress nounwind uwtable
define linkonce_odr hidden noundef nonnull align 8 dereferenceable(8) ptr @_ZSt3getILm0EJPN4cvc58internal6theory11quantifiers11SynthEngineESt14default_deleteIS4_EEERKNSt13tuple_elementIXT_ESt5tupleIJDpT0_EEE4typeERKSC_(ptr noundef nonnull align 8 dereferenceable(8) %__t) #4 comdat {
entry:
  %__t.addr = alloca ptr, align 8
  store ptr %__t, ptr %__t.addr, align 8
  %0 = load ptr, ptr %__t.addr, align 8
  %call = call noundef nonnull align 8 dereferenceable(8) ptr @_ZSt12__get_helperILm0EPN4cvc58internal6theory11quantifiers11SynthEngineEJSt14default_deleteIS4_EEERKT0_RKSt11_Tuple_implIXT_EJS8_DpT1_EE(ptr noundef nonnull align 8 dereferenceable(8) %0) #3
  ret ptr %call
}

; Function Attrs: mustprogress nounwind uwtable
define linkonce_odr hidden noundef nonnull align 8 dereferenceable(8) ptr @_ZSt3getILm0EJPN4cvc58internal6theory11quantifiers18QuantifiersModulesESt14default_deleteIS4_EEERKNSt13tuple_elementIXT_ESt5tupleIJDpT0_EEE4typeERKSC_(ptr noundef nonnull align 8 dereferenceable(8) %__t) #4 comdat {
entry:
  %__t.addr = alloca ptr, align 8
  store ptr %__t, ptr %__t.addr, align 8
  %0 = load ptr, ptr %__t.addr, align 8
  %call = call noundef nonnull align 8 dereferenceable(8) ptr @_ZSt12__get_helperILm0EPN4cvc58internal6theory11quantifiers18QuantifiersModulesEJSt14default_deleteIS4_EEERKT0_RKSt11_Tuple_implIXT_EJS8_DpT1_EE(ptr noundef nonnull align 8 dereferenceable(8) %0) #3
  ret ptr %call
}

; Function Attrs: mustprogress nounwind uwtable
define linkonce_odr hidden noundef ptr @_ZNKSt15__uniq_ptr_implIN4cvc58internal6theory11quantifiers11SynthEngineESt14default_deleteIS4_EE6_M_ptrEv(ptr noundef nonnull align 8 dereferenceable(8) %this) #4 comdat align 2 {
entry:
  %this.addr = alloca ptr, align 8
  store ptr %this, ptr %this.addr, align 8
  %this1 = load ptr, ptr %this.addr, align 8
  %_M_t = getelementptr inbounds %"class.std::__uniq_ptr_impl.848", ptr %this1, i32 0, i32 0
  %call = call noundef nonnull align 8 dereferenceable(8) ptr @_ZSt3getILm0EJPN4cvc58internal6theory11quantifiers11SynthEngineESt14default_deleteIS4_EEERKNSt13tuple_elementIXT_ESt5tupleIJDpT0_EEE4typeERKSC_(ptr noundef nonnull align 8 dereferenceable(8) %_M_t) #3
  %0 = load ptr, ptr %call, align 8
  ret ptr %0
}

; Function Attrs: mustprogress nounwind uwtable
define linkonce_odr hidden noundef ptr @_ZNKSt15__uniq_ptr_implIN4cvc58internal6theory11quantifiers18QuantifiersModulesESt14default_deleteIS4_EE6_M_ptrEv(ptr noundef nonnull align 8 dereferenceable(8) %this) #4 comdat align 2 {
entry:
  %this.addr = alloca ptr, align 8
  store ptr %this, ptr %this.addr, align 8
  %this1 = load ptr, ptr %this.addr, align 8
  %_M_t = getelementptr inbounds %"class.std::__uniq_ptr_impl.9", ptr %this1, i32 0, i32 0
  %call = call noundef nonnull align 8 dereferenceable(8) ptr @_ZSt3getILm0EJPN4cvc58internal6theory11quantifiers18QuantifiersModulesESt14default_deleteIS4_EEERKNSt13tuple_elementIXT_ESt5tupleIJDpT0_EEE4typeERKSC_(ptr noundef nonnull align 8 dereferenceable(8) %_M_t) #3
  %0 = load ptr, ptr %call, align 8
  ret ptr %0
}

; Function Attrs: mustprogress nounwind uwtable
define linkonce_odr hidden noundef ptr @_ZNKSt10unique_ptrIN4cvc58internal6theory11quantifiers11SynthEngineESt14default_deleteIS4_EE3getEv(ptr noundef nonnull align 8 dereferenceable(8) %this) #4 comdat align 2 {
entry:
  %this.addr = alloca ptr, align 8
  store ptr %this, ptr %this.addr, align 8
  %this1 = load ptr, ptr %this.addr, align 8
  %_M_t = getelementptr inbounds %"class.std::unique_ptr.846", ptr %this1, i32 0, i32 0
  %call = call noundef ptr @_ZNKSt15__uniq_ptr_implIN4cvc58internal6theory11quantifiers11SynthEngineESt14default_deleteIS4_EE6_M_ptrEv(ptr noundef nonnull align 8 dereferenceable(8) %_M_t) #3
  ret ptr %call
}

; Function Attrs: mustprogress nounwind uwtable
define linkonce_odr hidden noundef ptr @_ZNKSt10unique_ptrIN4cvc58internal6theory11quantifiers18QuantifiersModulesESt14default_deleteIS4_EE3getEv(ptr noundef nonnull align 8 dereferenceable(8) %this) #4 comdat align 2 {
entry:
  %this.addr = alloca ptr, align 8
  store ptr %this, ptr %this.addr, align 8
  %this1 = load ptr, ptr %this.addr, align 8
  %_M_t = getelementptr inbounds %"class.std::unique_ptr.7", ptr %this1, i32 0, i32 0
  %call = call noundef ptr @_ZNKSt15__uniq_ptr_implIN4cvc58internal6theory11quantifiers18QuantifiersModulesESt14default_deleteIS4_EE6_M_ptrEv(ptr noundef nonnull align 8 dereferenceable(8) %_M_t) #3
  ret ptr %call
}

; Function Attrs: mustprogress nounwind uwtable
define linkonce_odr hidden noundef ptr @_ZNKSt10unique_ptrIN4cvc58internal6theory11quantifiers11SynthEngineESt14default_deleteIS4_EEptEv(ptr noundef nonnull align 8 dereferenceable(8) %this) #4 comdat align 2 {
entry:
  %this.addr = alloca ptr, align 8
  store ptr %this, ptr %this.addr, align 8
  %this1 = load ptr, ptr %this.addr, align 8
  %call = call noundef ptr @_ZNKSt10unique_ptrIN4cvc58internal6theory11quantifiers11SynthEngineESt14default_deleteIS4_EE3getEv(ptr noundef nonnull align 8 dereferenceable(8) %this1) #3
  ret ptr %call
}

; Function Attrs: mustprogress nounwind uwtable
define linkonce_odr hidden noundef ptr @_ZNKSt10unique_ptrIN4cvc58internal6theory11quantifiers18QuantifiersModulesESt14default_deleteIS4_EEptEv(ptr noundef nonnull align 8 dereferenceable(8) %this) #4 comdat align 2 {
entry:
  %this.addr = alloca ptr, align 8
  store ptr %this, ptr %this.addr, align 8
  %this1 = load ptr, ptr %this.addr, align 8
  %call = call noundef ptr @_ZNKSt10unique_ptrIN4cvc58internal6theory11quantifiers18QuantifiersModulesESt14default_deleteIS4_EE3getEv(ptr noundef nonnull align 8 dereferenceable(8) %this1) #3
  ret ptr %call
}

; Function Attrs: mustprogress uwtable
define hidden noundef zeroext i1 @_ZN4cvc58internal6theory17QuantifiersEngine17getSynthSolutionsERSt3mapINS0_12NodeTemplateILb1EEES3_IS5_S5_St4lessIS5_ESaISt4pairIKS5_S5_EEES7_SaIS8_IS9_SC_EEE(ptr noundef nonnull align 8 dereferenceable(356) %this, ptr noundef nonnull align 8 dereferenceable(48) %sol_map) #5 align 2 {
entry:
  %this.addr = alloca ptr, align 8
  %sol_map.addr = alloca ptr, align 8
  store ptr %this, ptr %this.addr, align 8
  store ptr %sol_map, ptr %sol_map.addr, align 8
  %this1 = load ptr, ptr %this.addr, align 8
  %d_qmodules = getelementptr inbounds %"class.cvc5::internal::theory::QuantifiersEngine", ptr %this1, i32 0, i32 11
  %call = call noundef ptr @_ZNKSt10unique_ptrIN4cvc58internal6theory11quantifiers18QuantifiersModulesESt14default_deleteIS4_EEptEv(ptr noundef nonnull align 8 dereferenceable(8) %d_qmodules) #3
  %d_synth_e = getelementptr inbounds %"class.cvc5::internal::theory::quantifiers::QuantifiersModules", ptr %call, i32 0, i32 7
  %call2 = call noundef ptr @_ZNKSt10unique_ptrIN4cvc58internal6theory11quantifiers11SynthEngineESt14default_deleteIS4_EEptEv(ptr noundef nonnull align 8 dereferenceable(8) %d_synth_e) #3
  %0 = load ptr, ptr %sol_map.addr, align 8
  %call3 = call noundef zeroext i1 @_ZN4cvc58internal6theory11quantifiers11SynthEngine17getSynthSolutionsERSt3mapINS0_12NodeTemplateILb1EEES4_IS6_S6_St4lessIS6_ESaISt4pairIKS6_S6_EEES8_SaIS9_ISA_SD_EEE(ptr noundef nonnull align 8 dereferenceable(120) %call2, ptr noundef nonnull align 8 dereferenceable(48) %0)
  ret i1 %call3
}