; Function Attrs: mustprogress uwtable
define hidden noundef zeroext i1 @_ZN4cvc58internal6theory17QuantifiersEngine17getSynthSolutionsERSt3mapINS0_12NodeTemplateILb1EEES3_IS5_S5_St4lessIS5_ESaISt4pairIKS5_S5_EEES7_SaIS8_IS9_SC_EEE(ptr nocapture noundef nonnull readonly align 8 dereferenceable(356) %this, ptr noundef nonnull align 8 dereferenceable(48) %sol_map) local_unnamed_addr #3 align 2 {
entry:
  %d_qmodules = getelementptr inbounds i8, ptr %this, i64 128
  %0 = load ptr, ptr %d_qmodules, align 8
  %d_synth_e = getelementptr inbounds i8, ptr %0, i64 56
  %1 = load ptr, ptr %d_synth_e, align 8
  %call3 = tail call noundef zeroext i1 @_ZN4cvc58internal6theory11quantifiers11SynthEngine17getSynthSolutionsERSt3mapINS0_12NodeTemplateILb1EEES4_IS6_S6_St4lessIS6_ESaISt4pairIKS6_S6_EEES8_SaIS9_ISA_SD_EEE(ptr noundef nonnull align 8 dereferenceable(120) %1, ptr noundef nonnull align 8 dereferenceable(48) %sol_map)
  ret i1 %call3
}